; Function Attrs: mustprogress uwtable
define hidden void @_ZN2cv3hal12cpu_baseline6max64fEPKdmS3_mPdmii(ptr nocapture noundef readonly %0, i64 noundef %1, ptr nocapture noundef readonly %2, i64 noundef %3, ptr nocapture noundef writeonly %4, i64 noundef %5, i32 noundef %6, i32 noundef %7) local_unnamed_addr #0 personality ptr @__gxx_personality_v0 {
  %9 = alloca %"class.cv::utils::trace::details::Region", align 8
  call void @_ZN2cv5utils5trace7details6RegionC1ERKNS3_21LocationStaticStorageE(ptr noundef nonnull align 8 dereferenceable(12) %9, ptr noundef nonnull align 8 dereferenceable(32) @_ZZN2cv3hal12cpu_baseline6max64fEPKdmS3_mPdmiiE25__cv_trace_location_fn545)
  %10 = lshr i64 %1, 3
  %11 = lshr i64 %3, 3
  %12 = lshr i64 %5, 3
  %13 = add nsw i32 %7, -1
  %.not63.i = icmp eq i32 %7, 0
  br i1 %.not63.i, label %_ZN2cv3hal12cpu_baselineL15bin_loop_nosimdINS1_6op_maxEdiEEvPKT0_mS6_mPS4_mii.exit, label %.preheader58.lr.ph.i

.preheader58.lr.ph.i:                             ; preds = %8
  %.not5359.i = icmp slt i32 %6, 4
  br i1 %.not5359.i, label %.preheader58.lr.ph.split.us.i, label %.preheader58.preheader.i

.preheader58.preheader.i:                         ; preds = %.preheader58.lr.ph.i
  %14 = add nsw i32 %6, -4
  %15 = zext nneg i32 %14 to i64
  %16 = zext nneg i32 %6 to i64
  %17 = and i64 %15, 2147483644
  %18 = add nuw nsw i64 %17, 4
  br label %.preheader58.i

.preheader58.lr.ph.split.us.i:                    ; preds = %.preheader58.lr.ph.i
  %19 = icmp sgt i32 %6, 0
  br i1 %19, label %.preheader58.us.us.preheader.i, label %_ZN2cv3hal12cpu_baselineL15bin_loop_nosimdINS1_6op_maxEdiEEvPKT0_mS6_mPS4_mii.exit

.preheader58.us.us.preheader.i:                   ; preds = %.preheader58.lr.ph.split.us.i
  %wide.trip.count.i = zext nneg i32 %6 to i64
  br label %.preheader58.us.us.i

.preheader58.us.us.i:                             ; preds = %._crit_edge.us.us.i, %.preheader58.us.us.preheader.i
  %20 = phi i32 [ %31, %._crit_edge.us.us.i ], [ %13, %.preheader58.us.us.preheader.i ]
  %.066.us.us.i = phi ptr [ %28, %._crit_edge.us.us.i ], [ %0, %.preheader58.us.us.preheader.i ]
  %.05165.us.us.i = phi ptr [ %29, %._crit_edge.us.us.i ], [ %2, %.preheader58.us.us.preheader.i ]
  %.05264.us.us.i = phi ptr [ %30, %._crit_edge.us.us.i ], [ %4, %.preheader58.us.us.preheader.i ]
  br label %21

21:                                               ; preds = %21, %.preheader58.us.us.i
  %indvars.iv76.i = phi i64 [ 0, %.preheader58.us.us.i ], [ %indvars.iv.next77.i, %21 ]
  %22 = getelementptr inbounds double, ptr %.066.us.us.i, i64 %indvars.iv76.i
  %23 = load double, ptr %22, align 8
  %24 = getelementptr inbounds double, ptr %.05165.us.us.i, i64 %indvars.iv76.i
  %25 = load double, ptr %24, align 8
  %26 = fcmp olt double %23, %25
  %.sroa.speculated.i.i57.us.us.i = select i1 %26, double %25, double %23
  %27 = getelementptr inbounds double, ptr %.05264.us.us.i, i64 %indvars.iv76.i
  store double %.sroa.speculated.i.i57.us.us.i, ptr %27, align 8
  %indvars.iv.next77.i = add nuw nsw i64 %indvars.iv76.i, 1
  %exitcond.not.i = icmp eq i64 %indvars.iv.next77.i, %wide.trip.count.i
  br i1 %exitcond.not.i, label %._crit_edge.us.us.i, label %21, !llvm.loop !62

._crit_edge.us.us.i:                              ; preds = %21
  %28 = getelementptr inbounds double, ptr %.066.us.us.i, i64 %10
  %29 = getelementptr inbounds double, ptr %.05165.us.us.i, i64 %11
  %30 = getelementptr inbounds double, ptr %.05264.us.us.i, i64 %12
  %31 = add nsw i32 %20, -1
  %.not.us.us.i = icmp eq i32 %20, 0
  br i1 %.not.us.us.i, label %_ZN2cv3hal12cpu_baselineL15bin_loop_nosimdINS1_6op_maxEdiEEvPKT0_mS6_mPS4_mii.exit, label %.preheader58.us.us.i, !llvm.loop !63

.preheader58.i:                                   ; preds = %._crit_edge.i, %.preheader58.preheader.i
  %32 = phi i32 [ %61, %._crit_edge.i ], [ %13, %.preheader58.preheader.i ]
  %.066.i = phi ptr [ %58, %._crit_edge.i ], [ %0, %.preheader58.preheader.i ]
  %.05165.i = phi ptr [ %59, %._crit_edge.i ], [ %2, %.preheader58.preheader.i ]
  %.05264.i = phi ptr [ %60, %._crit_edge.i ], [ %4, %.preheader58.preheader.i ]
  br label %35

..preheader_crit_edge.i:                          ; preds = %35
  %33 = trunc nuw nsw i64 %indvars.iv.next.i to i32
  %34 = icmp slt i32 %33, %6
  br i1 %34, label %.lr.ph62.i, label %._crit_edge.i

35:                                               ; preds = %35, %.preheader58.i
  %indvars.iv.i = phi i64 [ 0, %.preheader58.i ], [ %indvars.iv.next.i, %35 ]
  %36 = getelementptr inbounds double, ptr %.066.i, i64 %indvars.iv.i
  %37 = getelementptr inbounds double, ptr %.05165.i, i64 %indvars.iv.i
  %38 = getelementptr inbounds double, ptr %.05264.i, i64 %indvars.iv.i
  %39 = load <2 x double>, ptr %36, align 8
  %40 = load <2 x double>, ptr %37, align 8
  %41 = fcmp olt <2 x double> %39, %40
  %42 = select <2 x i1> %41, <2 x double> %40, <2 x double> %39
  store <2 x double> %42, ptr %38, align 8
  %43 = or disjoint i64 %indvars.iv.i, 2
  %44 = getelementptr inbounds double, ptr %.066.i, i64 %43
  %45 = getelementptr inbounds double, ptr %.05165.i, i64 %43
  %46 = getelementptr inbounds double, ptr %.05264.i, i64 %43
  %47 = load <2 x double>, ptr %44, align 8
  %48 = load <2 x double>, ptr %45, align 8
  %49 = fcmp olt <2 x double> %47, %48
  %50 = select <2 x i1> %49, <2 x double> %48, <2 x double> %47
  store <2 x double> %50, ptr %46, align 8
  %indvars.iv.next.i = add nuw nsw i64 %indvars.iv.i, 4
  %.not53.i = icmp ugt i64 %indvars.iv.next.i, %15
  br i1 %.not53.i, label %..preheader_crit_edge.i, label %35, !llvm.loop !64

.lr.ph62.i:                                       ; preds = %..preheader_crit_edge.i, %.lr.ph62.i
  %indvars.iv73.i = phi i64 [ %indvars.iv.next74.i, %.lr.ph62.i ], [ %18, %..preheader_crit_edge.i ]
  %51 = getelementptr inbounds double, ptr %.066.i, i64 %indvars.iv73.i
  %52 = load double, ptr %51, align 8
  %53 = getelementptr inbounds double, ptr %.05165.i, i64 %indvars.iv73.i
  %54 = load double, ptr %53, align 8
  %55 = fcmp olt double %52, %54
  %.sroa.speculated.i.i57.i = select i1 %55, double %54, double %52
  %56 = getelementptr inbounds double, ptr %.05264.i, i64 %indvars.iv73.i
  store double %.sroa.speculated.i.i57.i, ptr %56, align 8
  %indvars.iv.next74.i = add nuw nsw i64 %indvars.iv73.i, 1
  %57 = icmp ult i64 %indvars.iv.next74.i, %16
  br i1 %57, label %.lr.ph62.i, label %._crit_edge.i, !llvm.loop !62

._crit_edge.i:                                    ; preds = %.lr.ph62.i, %..preheader_crit_edge.i
  %58 = getelementptr inbounds double, ptr %.066.i, i64 %10
  %59 = getelementptr inbounds double, ptr %.05165.i, i64 %11
  %60 = getelementptr inbounds double, ptr %.05264.i, i64 %12
  %61 = add nsw i32 %32, -1
  %.not.i = icmp eq i32 %32, 0
  br i1 %.not.i, label %_ZN2cv3hal12cpu_baselineL15bin_loop_nosimdINS1_6op_maxEdiEEvPKT0_mS6_mPS4_mii.exit, label %.preheader58.i, !llvm.loop !63

_ZN2cv3hal12cpu_baselineL15bin_loop_nosimdINS1_6op_maxEdiEEvPKT0_mS6_mPS4_mii.exit: ; preds = %._crit_edge.i, %._crit_edge.us.us.i, %.preheader58.lr.ph.split.us.i, %8
  %62 = getelementptr inbounds i8, ptr %9, i64 8
  %63 = load i32, ptr %62, align 8
  %.not.i9 = icmp eq i32 %63, 0
  br i1 %.not.i9, label %_ZN2cv5utils5trace7details6RegionD2Ev.exit, label %64

64:                                               ; preds = %_ZN2cv3hal12cpu_baselineL15bin_loop_nosimdINS1_6op_maxEdiEEvPKT0_mS6_mPS4_mii.exit
  invoke void @_ZN2cv5utils5trace7details6Region7destroyEv(ptr noundef nonnull align 8 dereferenceable(12) %9)
          to label %_ZN2cv5utils5trace7details6RegionD2Ev.exit unwind label %65

65:                                               ; preds = %64
  %66 = landingpad { ptr, i32 }
          catch ptr null
  %67 = extractvalue { ptr, i32 } %66, 0
  call void @__clang_call_terminate(ptr %67) #11
  unreachable

_ZN2cv5utils5trace7details6RegionD2Ev.exit:       ; preds = %_ZN2cv3hal12cpu_baselineL15bin_loop_nosimdINS1_6op_maxEdiEEvPKT0_mS6_mPS4_mii.exit, %64
  ret void
}